(dp0
S'yellow'
p1
I27
sS'four'
p2
I83
sS'hanging'
p3
I88
sS'fingernails'
p4
I31
sS'lord'
p5
I222
sS'sinking'
p6
I26
sS'callin'
p7
I30
sS'oceans'
p8
I39
sS'bringing'
p9
I60
sS'oooh'
p10
I38
sS'tired'
p11
I125
sS'second'
p12
I112
sS'captain'
p13
I46
sS'thunder'
p14
I24
sS'fingers'
p15
I63
sS'succumb'
p16
I54
sS'hero'
p17
I37
sS'here'
p18
I1149
sS'kids'
p19
I117
sS'golden'
p20
I45
sS'brought'
p21
I65
sS'until'
p22
I201
sS'holy'
p23
I46
sS'brings'
p24
I77
sS'hurt'
p25
I266
sS'glass'
p26
I95
sS'hole'
p27
I55
sS'hold'
p28
I521
sS'locked'
p29
I47
sS'sweeter'
p30
I46
sS'want'
p31
I953
sS'hoo'
p32
I22
sS'damage'
p33
I21
sS'machine'
p34
I43
sS'how'
p35
I1190
sS'hot'
p36
I137
sS'hop'
p37
I34
sS'beauty'
p38
I64
sS'wrong'
p39
I368
sS'keeps'
p40
I109
sS'wind'
p41
I207
sS'wine'
p42
I114
sS'dreamed'
p43
I62
sS'fit'
p44
I52
sS'screaming'
p45
I61
sS'fix'
p46
I37
sS'sixteen'
p47
I22
sS'silver'
p48
I57
sS'addicted'
p49
I27
sS'impossible'
p50
I28
sS'drove'
p51
I21
sS'ha'
p52
I54
sS'wash'
p53
I47
sS'spinning'
p54
I38
sS'needed'
p55
I107
sS'legs'
p56
I31
sS'bitter'
p57
I21
sS'selfcontrol'
p58
I22
sS'listen'
p59
I189
sS'crawl'
p60
I21
sS'showed'
p61
I42
sS'tree'
p62
I117
sS'feeling'
p63
I414
sS'person'
p64
I34
sS'doors'
p65
I54
sS'shall'
p66
I35
sS'doin'
p67
I50
sS'mouth'
p68
I88
sS'letter'
p69
I29
sS'spend'
p70
I86
sS'scream'
p71
I58
sS'came'
p72
I291
sS'saying'
p73
I151
sS'bomb'
p74
I20
sS'waking'
p75
I25
sS'busy'
p76
I26
sS'bliss'
p77
I36
sS'touched'
p78
I28
sS'rich'
p79
I47
sS'mend'
p80
I25
sS'wide'
p81
I54
sS'pocket'
p82
I34
sS'blew'
p83
I21
sS'fair'
p84
I94
sS'fail'
p85
I26
sS'best'
p86
I313
sS'rings'
p87
I44
sS'never'
p88
I1492
sS'rolled'
p89
I22
sS'cards'
p90
I56
sS'country'
p91
I70
sS'planned'
p92
I42
sS'lookin'
p93
I161
sS'asked'
p94
I56
sS'darlin'
p95
I72
sS'much'
p96
I638
sS'life'
p97
I1031
sS'crying'
p98
I87
sS'spit'
p99
I27
sS'child'
p100
I204
sS'spin'
p101
I34
sS'played'
p102
I51
sS'things'
p103
I565
sS'therell'
p104
I28
sS'tune'
p105
I59
sS'sleeps'
p106
I22
sS'disguise'
p107
I50
sS'ease'
p108
I32
sS'had'
p109
I828
sS'easy'
p110
I182
sS'east'
p111
I33
sS'birth'
p112
I24
sS'shadow'
p113
I64
sS'desire'
p114
I32
sS'remind'
p115
I25
sS'pavement'
p116
I21
sS'steps'
p117
I35
sS'right'
p118
I980
sS'old'
p119
I505
sS'crowd'
p120
I58
sS'people'
p121
I380
sS'crown'
p122
I24
sS'billboard'
p123
I61
sS'creep'
p124
I22
sS'bottom'
p125
I70
sS'starring'
p126
I47
sS'losing'
p127
I104
sS'dyin'
p128
I25
sS'dollars'
p129
I32
sS'o'
p130
I32
sS'raised'
p131
I29
sS'son'
p132
I104
sS'wrap'
p133
I34
sS'waits'
p134
I23
sS'knowing'
p135
I67
sS'music'
p136
I197
sS'happy'
p137
I180
sS'perfumes'
p138
I29
sS'inside'
p139
I605
sS'mighty'
p140
I25
sS'floor'
p141
I208
sS'sunset'
p142
I28
sS'smell'
p143
I44
sS'roll'
p144
I147
sS'rolling'
p145
I55
sS'time'
p146
I1686
sS'push'
p147
I64
sS'chain'
p148
I27
sS'chair'
p149
I31
sS'choice'
p150
I31
sS'minute'
p151
I74
sS'tear'
p152
I83
sS'leave'
p153
I419
sS'settle'
p154
I27
sS'team'
p155
I38
sS'sigh'
p156
I23
sS'sign'
p157
I76
sS'melt'
p158
I39
sS'falling'
p159
I155
sS'ground'
p160
I151
sS'alone'
p161
I564
sS'along'
p162
I284
sS'love'
p163
I2276
sS'fake'
p164
I46
sS'bended'
p165
I45
sS'working'
p166
I61
sS'angry'
p167
I23
sS'wondering'
p168
I53
sS'wicked'
p169
I21
sS'claus'
p170
I30
sS'everywhere'
p171
I95
sS'anything'
p172
I152
sS'pretend'
p173
I141
sS'believed'
p174
I63
sS'stole'
p175
I23
sS'winter'
p176
I65
sS'spot'
p177
I39
sS'date'
p178
I38
sS'such'
p179
I228
sS'suck'
p180
I22
sS'truly'
p181
I34
sS'truck'
p182
I70
sS'pulled'
p183
I65
sS'years'
p184
I209
sS'course'
p185
I32
sS'torn'
p186
I42
sS'troubles'
p187
I46
sS'feelin'
p188
I97
sS'flown'
p189
I22
sS'fallin'
p190
I44
sS'million'
p191
I59
sS'quite'
p192
I61
sS'spirit'
p193
I41
sS'one'
p194
I1582
sS'open'
p195
I226
sS'bite'
p196
I22
sS'williams'
p197
I51
sS'fooled'
p198
I24
sS'future'
p199
I34
sS'turned'
p200
I118
sS'sad'
p201
I123
sS'say'
p202
I1382
sS'buried'
p203
I23
sS'saw'
p204
I278
sS'sat'
p205
I61
sS'aside'
p206
I43
sS'note'
p207
I30
sS'take'
p208
I1063
sS'wanting'
p209
I30
sS'butterfly'
p210
I28
sS'knew'
p211
I295
sS'winters'
p212
I80
sS'walking'
p213
I159
sS'hopes'
p214
I51
sS'bright'
p215
I136
sS'imagined'
p216
I45
sS'slow'
p217
I157
sS'tears'
p218
I211
sS'going'
p219
I352
sS'caroling'
p220
I23
sS'between'
p221
I122
sS'artist'
p222
I29
sS'vision'
p223
I45
sS'screen'
p224
I25
sS'spark'
p225
I21
sS'mans'
p226
I39
sS'many'
p227
I281
sS's'
p228
I23
sS'stream'
p229
I22
sS'boat'
p230
I23
sS'west'
p231
I38
sS'breath'
p232
I126
sS'wants'
p233
I113
sS'thousand'
p234
I79
sS'runnin'
p235
I47
sS'ive'
p236
I1239
sS'thatll'
p237
I27
sS'thinkin'
p238
I87
sS'nothin'
p239
I97
sS'summer'
p240
I116
sS'being'
p241
I156
sS'rest'
p242
I135
sS'skies'
p243
I56
sS'around'
p244
I911
sS'dark'
p245
I306
sS'world'
p246
I788
sS'dare'
p247
I37
sS'stranger'
p248
I47
sS'playin'
p249
I49
sS'memories'
p250
I132
sS'power'
p251
I48
sS'stone'
p252
I34
sS'act'
p253
I108
sS'luck'
p254
I47
sS'burning'
p255
I73
sS'cared'
p256
I31
sS'hed'
p257
I35
sS'complete'
p258
I26
sS'pull'
p259
I100
sS'dirty'
p260
I48
sS'gone'
p261
I611
sS'ohh'
p262
I53
sS'johnny'
p263
I43
sS'certain'
p264
I47
sS'forgot'
p265
I31
sS'am'
p266
I539
sS'walks'
p267
I23
sS'watched'
p268
I59
sS'cream'
p269
I23
sS'tight'
p270
I178
sS'someones'
p271
I22
sS'waving'
p272
I48
sS'having'
p273
I47
sS'tv'
p274
I56
sS'laughing'
p275
I70
sS'tail'
p276
I61
sS'smile'
p277
I310
sS'laying'
p278
I23
sS'sang'
p279
I28
sS'sand'
p280
I63
sS'small'
p281
I91
sS'cash'
p282
I22
sS'past'
p283
I204
sS'pass'
p284
I73
sS'clock'
p285
I50
sS'full'
p286
I122
sS'hours'
p287
I68
sS'pick'
p288
I109
sS'action'
p289
I21
sS'vip'
p290
I20
sS'send'
p291
I107
sS'pulls'
p292
I24
sS'door'
p293
I355
sS'keeping'
p294
I70
sS'sent'
p295
I40
sS'learn'
p296
I92
sS'knocked'
p297
I20
sS'beautiful'
p298
I167
sS'sense'
p299
I67
sS'dress'
p300
I72
sS'plans'
p301
I45
sS'plane'
p302
I61
sS'waves'
p303
I33
sS'attitude'
p304
I24
sS'paper'
p305
I49
sS'signs'
p306
I29
sS'broadway'
p307
I21
sS'smiling'
p308
I39
sS'its'
p309
I2371
sS'travelling'
p310
I44
sS'bought'
p311
I35
sS'everytime'
p312
I42
sS'always'
p313
I672
sS'found'
p314
I336
sS'upstairs'
p315
I37
sS'really'
p316
I424
sS'darling'
p317
I141
sS'highway'
p318
I43
sS'drifting'
p319
I20
sS'slipped'
p320
I21
sS'number'
p321
I77
sS'glitter'
p322
I21
sS'heads'
p323
I31
sS'glow'
p324
I55
sS'mmmm'
p325
I24
sS'stairs'
p326
I26
sS'caress'
p327
I22
sS'sell'
p328
I32
sS'play'
p329
I284
sS'plan'
p330
I32
sS'understands'
p331
I37
sS'sometimes'
p332
I248
sS'cover'
p333
I70
sS'gold'
p334
I114
sS'sayin'
p335
I45
sS'sunny'
p336
I35
sS'enemy'
p337
I49
sS'sleeve'
p338
I28
sS'cry'
p339
I323
sS'river'
p340
I114
sS'insane'
p341
I66
sS'set'
p342
I150
sS'sex'
p343
I32
sS'touch'
p344
I306
sS'see'
p345
I1613
sS'sea'
p346
I112
sS'knees'
p347
I133
sS'movie'
p348
I50
sS'barely'
p349
I46
sS'whole'
p350
I221
sS'sink'
p351
I26
sS'bell'
p352
I35
sS'hollow'
p353
I36
sS'church'
p354
I85
sS'devil'
p355
I52
sS'fire'
p356
I189
sS'straight'
p357
I94
sS'pressed'
p358
I22
sS'kissing'
p359
I38
sS'hoping'
p360
I49
sS'chase'
p361
I26
sS'funny'
p362
I67
sS'read'
p363
I114
sS'forgiveness'
p364
I22
sS'early'
p365
I63
sS'parents'
p366
I21
sS'couple'
p367
I65
sS'suffering'
p368
I26
sS'chorus'
p369
I207
sS'names'
p370
I43
sS'sight'
p371
I117
sS'greener'
p372
I20
sS'feelings'
p373
I65
sS'nowhere'
p374
I85
sS'santa'
p375
I41
sS'narration'
p376
I21
sS'flying'
p377
I46
sS'into'
p378
I626
sS'line'
p379
I229
sS'fades'
p380
I27
sS'up'
p381
I1957
sS'us'
p382
I558
sS'faded'
p383
I31
sS'm'
p384
I27
sS'haunt'
p385
I22
sS'work'
p386
I178
sS'ago'
p387
I83
sS'lane'
p388
I26
sS'land'
p389
I113
sS'walked'
p390
I132
sS'fresh'
p391
I30
sS'hello'
p392
I62
sS'melts'
p393
I23
sS'stops'
p394
I38
sS'seemed'
p395
I67
sS'young'
p396
I207
sS'street'
p397
I220
sS'wipe'
p398
I23
sS'magic'
p399
I44
sS'marry'
p400
I21
sS'gettin'
p401
I66
sS'eve'
p402
I33
sS'try'
p403
I505
sS'race'
p404
I47
sS'everythings'
p405
I43
sS'lee'
p406
I47
sS'fifteen'
p407
I21
sS'great'
p408
I63
sS'makes'
p409
I232
sS'maker'
p410
I25
sS'standing'
p411
I151
sS'confidence'
p412
I25
sS'next'
p413
I259
sS'doubt'
p414
I63
sS'babe'
p415
I148
sS'losin'
p416
I34
sS'baby'
p417
I1184
sS'pour'
p418
I37
sS'thin'
p419
I28
sS'lock'
p420
I25
sS'pieces'
p421
I69
sS'high'
p422
I384
sS'bend'
p423
I75
sS'slip'
p424
I50
sS'tied'
p425
I20
sS'realized'
p426
I21
sS'standin'
p427
I34
sS'move'
p428
I162
sS'perfect'
p429
I115
sS'mistletoe'
p430
I49
sS'youd'
p431
I241
sS'kiss'
p432
I229
sS'truth'
p433
I222
sS'rising'
p434
I36
sS'beneath'
p435
I96
sS'static'
p436
I22
sS'wander'
p437
I26
sS'shut'
p438
I68
sS'surely'
p439
I23
sS'could'
p440
I919
sS'scars'
p441
I26
sS'bird'
p442
I43
sS'blown'
p443
I22
sS'jesus'
p444
I74
sS'blows'
p445
I49
sS'favorite'
p446
I47
sS'stars'
p447
I227
sS'bother'
p448
I24
sS'gently'
p449
I46
sS'tonight'
p450
I507
sS'gentle'
p451
I27
sS'stronger'
p452
I34
sS'face'
p453
I514
sS'innocent'
p454
I32
sS'fact'
p455
I51
sS'rainbows'
p456
I29
sS'bring'
p457
I222
sS'rough'
p458
I39
sS'jay'
p459
I31
sS'should'
p460
I443
sS'riding'
p461
I34
sS'hope'
p462
I203
sS'handle'
p463
I36
sS'lucky'
p464
I75
sS'scene'
p465
I66
sS'guessing'
p466
I21
sS'frame'
p467
I33
sS'packed'
p468
I26
sS'destiny'
p469
I40
sS'youll'
p470
I524
sS'ends'
p471
I40
sS'staring'
p472
I50
sS'figured'
p473
I29
sS'drug'
p474
I26
sS'heart'
p475
I1211
sS'apologize'
p476
I20
sS'waste'
p477
I61
sS'spain'
p478
I50
sS'theyve'
p479
I43
sS'sits'
p480
I30
sS'romance'
p481
I29
sS'ball'
p482
I60
sS'drink'
p483
I152
sS'upon'
p484
I162
sS'dust'
p485
I46
sS'off'
p486
I435
sS'moments'
p487
I73
sS'wed'
p488
I75
sS'realize'
p489
I68
sS'wet'
p490
I27
sS'whispers'
p491
I43
sS'five'
p492
I39
sS'does'
p493
I160
sS'blowing'
p494
I34
sS'pressure'
p495
I51
sS'singin'
p496
I40
sS'stage'
p497
I26
sS'sister'
p498
I21
sS'puts'
p499
I22
sS'peak'
p500
I57
sS'letters'
p501
I20
sS'three'
p502
I152
sS'roads'
p503
I29
sS'doing'
p504
I105
sS'count'
p505
I73
sS'problem'
p506
I34
sS'recognize'
p507
I20
sS'lately'
p508
I42
sS'monday'
p509
I27
sS'chance'
p510
I145
sS'ghost'
p511
I31
sS'lasted'
p512
I48
sS'lift'
p513
I37
sS'everybody'
p514
I202
sS'saved'
p515
I44
sS'chill'
p516
I22
sS'lack'
p517
I27
sS'tickets'
p518
I24
sS'preacher'
p519
I55
sS'told'
p520
I363
sS'daughter'
p521
I21
sS'walkin'
p522
I57
sS'smoke'
p523
I70
sS'stressed'
p524
I21
sS'lonesome'
p525
I46
sS'word'
p526
I135
sS'wore'
p527
I23
sS'worn'
p528
I22
sS'disappear'
p529
I52
sS'grown'
p530
I42
sS'after'
p531
I297
sS'lay'
p532
I146
sS'greed'
p533
I23
sS'somewhere'
p534
I141
sS'eventually'
p535
I68
sS'coffee'
p536
I42
sS'safe'
p537
I120
sS'collide'
p538
I22
sS'break'
p539
I319
sS'band'
p540
I58
sS'they'
p541
I1157
sS'bank'
p542
I23
sS'rocks'
p543
I31
sS'strangers'
p544
I51
sS'daniel'
p545
I46
sS'another'
p546
I448
sS'comin'
p547
I127
sS'teardrops'
p548
I29
sS'jingle'
p549
I27
sS'wasted'
p550
I36
sS'mercy'
p551
I35
sS'return'
p552
I38
sS'strength'
p553
I69
sS'grave'
p554
I25
sS'just'
p555
I2543
sS'do'
p556
I1571
sS'dj'
p557
I35
sS'da'
p558
I62
sS'runs'
p559
I23
sS'away'
p560
I1163
sS'handful'
p561
I21
sS'kitchen'
p562
I35
sS'ill'
p563
I1010
sS'undone'
p564
I40
sS'tone'
p565
I23
sS'speak'
p566
I115
sS'pretending'
p567
I30
sS'ahead'
p568
I34
sS'voice'
p569
I171
sS'mistake'
p570
I56
sS'compton'
p571
I22
sS'evil'
p572
I43
sS'hand'
p573
I429
sS'kept'
p574
I88
sS'musical'
p575
I23
sS'hills'
p576
I25
sS'shout'
p577
I34
sS'spread'
p578
I36
sS'theyre'
p579
I151
sS'night'
p580
I1180
sS'sends'
p581
I20
sS'born'
p582
I139
sS'asking'
p583
I77
sS'beating'
p584
I82
sS'months'
p585
I30
sS'book'
p586
I35
sS'wasting'
p587
I29
sS'bound'
p588
I30
sS'fight'
p589
I217
sS'way'
p590
I1526
sS'war'
p591
I89
sS'true'
p592
I404
sS'emotional'
p593
I22
sS'prayed'
p594
I44
sS'promises'
p595
I35
sS'promised'
p596
I37
sS'prayer'
p597
I28
sS'reality'
p598
I31
sS'holding'
p599
I125
sS'brothers'
p600
I29
sS'welcome'
p601
I67
sS'together'
p602
I238
sS'songs'
p603
I59
sS'broke'
p604
I67
sS'dance'
p605
I161
sS'battle'
p606
I27
sS'flash'
p607
I30
sS'rhythm'
p608
I40
sS'brown'
p609
I105
sS'trouble'
p610
I70
sS'turns'
p611
I46
sS'gun'
p612
I69
sS'guy'
p613
I113
sS'brave'
p614
I20
sS'discover'
p615
I29
sS'change'
p616
I254
sS'flames'
p617
I38
sS'pillow'
p618
I32
sS'prove'
p619
I40
sS'live'
p620
I333
sS'angels'
p621
I78
sS'club'
p622
I58
sS'niggas'
p623
I46
sS'car'
p624
I169
sS'cap'
p625
I26
sS'cat'
p626
I21
sS'december'
p627
I34
sS'heard'
p628
I204
sS'southern'
p629
I28
sS'brain'
p630
I56
sS'cold'
p631
I345
sS'birds'
p632
I51
sS'lyin'
p633
I36
sS'window'
p634
I147
sS'half'
p635
I105
sS'now'
p636
I1711
sS'wont'
p637
I775
sS'drop'
p638
I74
sS'em'
p639
I150
sS'yeah'
p640
I841
sS'shouldnt'
p641
I55
sS'year'
p642
I117
sS'happen'
p643
I53
sS'opened'
p644
I25
sS'space'
p645
I81
sS'looking'
p646
I336
sS'shows'
p647
I37
sS'cars'
p648
I35
sS'care'
p649
I236
sS'honest'
p650
I50
sS'blind'
p651
I102
sS'message'
p652
I44
sS'tomorrow'
p653
I109
sS'silent'
p654
I54
sS'caught'
p655
I123
sS'friend'
p656
I243
sS'flowers'
p657
I48
sS'angel'
p658
I83
sS'anytime'
p659
I40
sS'begin'
p660
I52
sS'price'
p661
I25
sS'forever'
p662
I277
sS'dream'
p663
I382
sS'steady'
p664
I34
sS'aint'
p665
I694
sS'title'
p666
I23
sS'cannot'
p667
I88
sS'cryin'
p668
I74
sS'leather'
p669
I21
sS'husband'
p670
I20
sS'station'
p671
I26
sS'asleep'
p672
I70
sS'notice'
p673
I28
sS'blame'
p674
I52
sS'hurts'
p675
I51
sS'pray'
p676
I150
sS'roof'
p677
I24
sS'wheels'
p678
I27
sS'comes'
p679
I228
sS'jeans'
p680
I52
sS'cares'
p681
I36
sS'wounds'
p682
I28
sS'evening'
p683
I131
sS'embrace'
p684
I34
sS'heels'
p685
I23
sS'worry'
p686
I73
sS'breeze'
p687
I42
sS'neon'
p688
I34
sS'foot'
p689
I24
sS'speed'
p690
I24
sS'death'
p691
I49
sS'thinking'
p692
I180
sS'verse'
p693
I52
sS'swim'
p694
I43
sS'frown'
p695
I24
sS'rules'
p696
I37
sS'lady'
p697
I113
sS'fortune'
p698
I20
sS'eddie'
p699
I29
sS'business'
p700
I22
sS'throw'
p701
I141
sS'happening'
p702
I29
sS'stare'
p703
I89
sS'ared'
p704
I29
sS'start'
p705
I303
sS'low'
p706
I146
sS'lot'
p707
I173
sS'trying'
p708
I258
sS'tellin'
p709
I24
sS'describe'
p710
I23
sS'moved'
p711
I48
sS'moves'
p712
I45
sS'fools'
p713
I39
sS'poor'
p714
I45
sS'pool'
p715
I25
sS'moonlight'
p716
I44
sS'degradin'
p717
I29
sS'since'
p718
I265
sS'month'
p719
I31
sS'very'
p720
I141
sS'decide'
p721
I32
sS'heaven'
p722
I177
sS'still'
p723
I816
sS'streets'
p724
I87
sS'darkness'
p725
I87
sS'emotions'
p726
I40
sS'learned'
p727
I90
sS'loose'
p728
I50
sS'answers'
p729
I52
sS'forgive'
p730
I28
sS'strong'
p731
I238
sS'respect'
p732
I26
sS'arent'
p733
I43
sS'family'
p734
I70
sS'takes'
p735
I167
sS'taken'
p736
I72
sS'excuse'
p737
I30
sS'suffered'
p738
I23
sS'nine'
p739
I25
sS'history'
p740
I29
sS'daddys'
p741
I44
sS'stayed'
p742
I42
sS'tries'
p743
I24
sS'justin'
p744
I20
sS'soon'
p745
I196
sS'held'
p746
I148
sS'hell'
p747
I207
sS'fool'
p748
I178
sS'yo'
p749
I82
sS'ya'
p750
I209
sS'ye'
p751
I23
sS'floating'
p752
I20
sS'bless'
p753
I25
sS'stopped'
p754
I71
sS'heavy'
p755
I64
sS'restless'
p756
I40
sS'beyond'
p757
I53
sS'miss'
p758
I204
sS'ass'
p759
I64
sS'dirt'
p760
I56
sS'reason'
p761
I110
sS'put'
p762
I438
sS'ash'
p763
I26
sS'expecting'
p764
I20
sS'knocking'
p765
I23
sS'meadow'
p766
I30
sS'horse'
p767
I30
sS'wonderful'
p768
I56
sS'passed'
p769
I37
sS'behind'
p770
I222
sS'hundred'
p771
I45
sS'grey'
p772
I39
sS'wasnt'
p773
I130
sS'lie'
p774
I184
sS'lit'
p775
I25
sS'steal'
p776
I31
sS'clean'
p777
I40
sS'hips'
p778
I27
sS'heavens'
p779
I36
sS'less'
p780
I84
sS'pretty'
p781
I203
sS'trees'
p782
I66
sS'feels'
p783
I171
sS'grew'
p784
I43
sS'feed'
p785
I35
sS'bethlehem'
p786
I23
sS'won'
p787
I31
sS'missing'
p788
I50
sS'both'
p789
I154
sS'secrets'
p790
I46
sS'forgotten'
p791
I56
sS'whatever'
p792
I74
sS'likes'
p793
I35
sS'mission'
p794
I23
sS'help'
p795
I227
sS'damn'
p796
I97
sS'dame'
p797
I20
sS'lived'
p798
I60
sS'crack'
p799
I21
sS'else'
p800
I250
sS'pace'
p801
I28
sS'guide'
p802
I30
sS'pack'
p803
I28
sS'ready'
p804
I114
sS'used'
p805
I350
sS'persuadin'
p806
I29
sS'older'
p807
I37
sS'honor'
p808
I21
sS'infatuation'
p809
I45
sS'game'
p810
I236
sS'wings'
p811
I47
sS'some'
p812
I690
sS'towards'
p813
I23
sS'run'
p814
I485
sS'step'
p815
I113
sS'become'
p816
I97
sS'shine'
p817
I97
sS'faith'
p818
I100
sS'wouldnt'
p819
I127
sS'block'
p820
I35
sS'seeing'
p821
I45
sS'dude'
p822
I23
sS'within'
p823
I86
sS'himself'
p824
I30
sS'drifters'
p825
I24
sS'loving'
p826
I154
sS'clear'
p827
I149
sS'lovers'
p828
I101
sS'cotton'
p829
I20
sS'nah'
p830
I31
sS'fears'
p831
I79
sS'smiles'
p832
I28
sS'ooh'
p833
I218
sS'drag'
p834
I27
sS'smiled'
p835
I42
sS'go'
p836
I1669
sS'mercer'
p837
I22
sS'oclock'
p838
I26
sS'wave'
p839
I27
sS'telling'
p840
I97
sS'meant'
p841
I152
sS'boots'
p842
I37
sS'jump'
p843
I50
sS'picked'
p844
I28
sS'plays'
p845
I22
sS'cell'
p846
I22
sS'salvation'
p847
I36
sS'danger'
p848
I20
sS'win'
p849
I63
sS'singing'
p850
I105
sS'cloud'
p851
I44
sS'remains'
p852
I23
sS'means'
p853
I64
sS'hiding'
p854
I26
sS'started'
p855
I139
sS'ride'
p856
I151
sS'meet'
p857
I169
sS'drops'
p858
I20
sS'control'
p859
I140
sS'imagine'
p860
I30
sS'alienation'
p861
I20
sS'ticket'
p862
I43
sS'dancin'
p863
I54
sS'surrounds'
p864
I24
sS'hands'
p865
I278
sS'front'
p866
I110
sS'slide'
p867
I25
sS'crossing'
p868
I30
sS'shaking'
p869
I32
sS'completely'
p870
I31
sS'ask'
p871
I171
sS'keep'
p872
I541
sS'wrote'
p873
I60
sS'designed'
p874
I21
sS'bitch'
p875
I89
sS'wrapped'
p876
I53
sS'exactly'
p877
I36
sS'beg'
p878
I44
sS'bed'
p879
I187
sS'need'
p880
I822
sS'sings'
p881
I24
sS'brand'
p882
I53
sS'sleigh'
p883
I44
sS'pictures'
p884
I66
sS'anyway'
p885
I61
sS'shoes'
p886
I97
sS'woo'
p887
I86
sS'probably'
p888
I67
sS'endless'
p889
I27
sS'gray'
p890
I90
sS'shy'
p891
I34
sS'wish'
p892
I230
sS'grab'
p893
I44
sS'shake'
p894
I101
sS'desperate'
p895
I39
sS'nightmare'
p896
I22
sS'written'
p897
I37
sS'attention'
p898
I32
sS'merry'
p899
I43
sS'hits'
p900
I21
sS'minutes'
p901
I29
sS'minds'
p902
I40
sS'admit'
p903
I41
sS'slowly'
p904
I108
sS'treat'
p905
I67
sS'harder'
p906
I32
sS'surface'
p907
I30
sS'began'
p908
I122
sS'strange'
p909
I46
sS'wheel'
p910
I52
sS'underground'
p911
I31
sS'party'
p912
I107
sS'discouraged'
p913
I30
sS'well'
p914
I886
sS'mistakes'
p915
I60
sS'distant'
p916
I37
sS'headed'
p917
I44
sS'livin'
p918
I66
sS'lost'
p919
I385
sS'ring'
p920
I124
sS'lose'
p921
I235
sS'page'
p922
I22
sS'shed'
p923
I38
sS'repeat'
p924
I34
sS'home'
p925
I573
sS'heartache'
p926
I35
sS'dum'
p927
I31
sS'freedom'
p928
I50
sS'tongue'
p929
I44
sS'couldnt'
p930
I199
sS'dug'
p931
I22
sS'hi'
p932
I20
sS'ho'
p933
I31
sS'ear'
p934
I48
sS'eat'
p935
I49
sS'cruel'
p936
I35
sS'stories'
p937
I35
sS'empty'
p938
I158
sS'piece'
p939
I45
sS'penny'
p940
I20
sS'kisses'
p941
I38
sS'twist'
p942
I30
sS'beats'
p943
I29
sS'talkin'
p944
I81
sS'star'
p945
I122
sS'stay'
p946
I418
sS'friends'
p947
I339
sS'lives'
p948
I105
sS'pardon'
p949
I20
sS'whose'
p950
I37
sS'presents'
p951
I24
sS'sorry'
p952
I172
sS'rescue'
p953
I20
sS'look'
p954
I649
sS'heading'
p955
I67
sS'clothes'
p956
I52
sS'across'
p957
I121
sS'lights'
p958
I277
sS'new'
p959
I426
sS'ever'
p960
I733
sS'mamas'
p961
I27
sS'screams'
p962
I24
sS'join'
p963
I29
sS'men'
p964
I93
sS'met'
p965
I127
sS'dry'
p966
I53
sS'arms'
p967
I206
sS'call'
p968
I328
sS'calm'
p969
I24
sS'survive'
p970
I52
sS'type'
p971
I38
sS'tell'
p972
I905
sS'warm'
p973
I217
sS'worst'
p974
I56
sS'pride'
p975
I107
sS'room'
p976
I249
sS'worth'
p977
I80
sS'give'
p978
I626
sS'laughs'
p979
I33
sS'honey'
p980
I257
sS'amazing'
p981
I21
sS'answer'
p982
I77
sS'anymore'
p983
I164
sS'goodbye'
p984
I238
sS'belong'
p985
I59
sS'better'
p986
I446
sS'went'
p987
I228
sS'side'
p988
I360
sS'bone'
p989
I22
sS'mean'
p990
I348
sS'taught'
p991
I48
sS'stealing'
p992
I21
sS'dawn'
p993
I56
sS'surprise'
p994
I43
sS'turning'
p995
I76
sS'starts'
p996
I95
sS'moving'
p997
I73
sS'loud'
p998
I97
sS'fuckin'
p999
I34
sS'thrown'
p1000
I20
sS'hood'
p1001
I36
sS'girls'
p1002
I151
sS'twisted'
p1003
I21
sS'begins'
p1004
I31
sS'distance'
p1005
I51
sS'matter'
p1006
I228
sS'silly'
p1007
I33
sS'sees'
p1008
I33
sS'mind'
p1009
I626
sS'mine'
p1010
I336
sS'seen'
p1011
I255
sS'seem'
p1012
I188
sS'tells'
p1013
I38
sS'chest'
p1014
I41
sS'dog'
p1015
I34
sS'hunger'
p1016
I25
sS'ending'
p1017
I34
sS'sugar'
p1018
I41
sS'folks'
p1019
I50
sS'wearing'
p1020
I41
sS'above'
p1021
I135
sS'stop'
p1022
I341
sS'bar'
p1023
I65
sS'fields'
p1024
I22
sS'bag'
p1025
I21
sS'bad'
p1026
I235
sS'softly'
p1027
I52
sS'ears'
p1028
I29
sS'said'
p1029
I833
sS'sail'
p1030
I47
sS'through'
p1031
I930
sS'wears'
p1032
I26
sS'ignorance'
p1033
I27
sS'weary'
p1034
I31
sS'picking'
p1035
I29
sS'against'
p1036
I74
sS'tiny'
p1037
I32
sS'lovely'
p1038
I37
sS'threw'
p1039
I34
sS'deeper'
p1040
I55
sS'sunshine'
p1041
I75
sS'near'
p1042
I89
sS'suppose'
p1043
I21
sS'seven'
p1044
I43
sS'changed'
p1045
I146
sS'shame'
p1046
I65
sS'id'
p1047
I567
sS'make'
p1048
I1019
sS'grows'
p1049
I39
sS'bells'
p1050
I109
sS'sittin'
p1051
I60
sS'thoughts'
p1052
I125
sS'kid'
p1053
I67
sS'yours'
p1054
I73
sS'left'
p1055
I526
sS'yea'
p1056
I59
sS'somethings'
p1057
I37
sS'human'
p1058
I43
sS'yes'
p1059
I278
sS'yet'
p1060
I96
sS'save'
p1061
I140
sS'destroy'
p1062
I22
sS'dreams'
p1063
I345
sS'shoulder'
p1064
I69
sS'deal'
p1065
I34
sS'somehow'
p1066
I108
sS'dead'
p1067
I121
sS'dear'
p1068
I121
sS'burn'
p1069
I121
sS'afternoon'
p1070
I33
sS'whats'
p1071
I264
sS'lied'
p1072
I32
sS'down'
p1073
I1707
sS'lies'
p1074
I211
sS'surrender'
p1075
I27
sS'tryin'
p1076
I100
sS'lips'
p1077
I166
sS'whiskey'
p1078
I33
sS'daddy'
p1079
I129
sS'breathe'
p1080
I120
sS'covers'
p1081
I23
sS'drive'
p1082
I108
sS'wonderland'
p1083
I23
sS'awhile'
p1084
I21
sS'shit'
p1085
I171
sS'hangin'
p1086
I37
sS'why'
p1087
I694
sS'felt'
p1088
I209
sS'fell'
p1089
I131
sS'weekend'
p1090
I28
sS'died'
p1091
I47
sS'daily'
p1092
I20
sS'teeth'
p1093
I28
sS'mile'
p1094
I52
sS'skin'
p1095
I119
sS'ohohoh'
p1096
I24
sS'father'
p1097
I49
sS'finally'
p1098
I118
sS'string'
p1099
I28
sS'jezebel'
p1100
I29
sS'did'
p1101
I491
sS'die'
p1102
I171
sS'dig'
p1103
I31
sS'round'
p1104
I232
sS'talked'
p1105
I34
sS'heres'
p1106
I104
sS'filled'
p1107
I89
sS'henry'
p1108
I29
sS'elses'
p1109
I21
sS'wait'
p1110
I237
sS'box'
p1111
I29
sS'boy'
p1112
I335
sS'sake'
p1113
I23
sS'ooo'
p1114
I26
sS'downtown'
p1115
I26
sS'fly'
p1116
I233
sS'soul'
p1117
I239
sS'growing'
p1118
I25
sS'making'
p1119
I139
sS'arrive'
p1120
I20
sS'crazy'
p1121
I279
sS'fuck'
p1122
I123
sS'breaking'
p1123
I74
sS'sunday'
p1124
I85
sS'swore'
p1125
I28
sS'may'
p1126
I163
sS'mad'
p1127
I56
sS'guys'
p1128
I62
sS'grow'
p1129
I86
sS'man'
p1130
I633
sS'neck'
p1131
I34
sS'maybe'
p1132
I261
sS'tale'
p1133
I33
sS'silence'
p1134
I91
sS'tall'
p1135
I66
sS'whoaohohohohoh'
p1136
I42
sS'talk'
p1137
I264
sS'nearly'
p1138
I28
sS'wishing'
p1139
I39
sS'thank'
p1140
I77
sS'ours'
p1141
I33
sS'touching'
p1142
I20
sS'beach'
p1143
I46
sS'rock'
p1144
I129
sS'girl'
p1145
I639
sS'living'
p1146
I250
sS'california'
p1147
I86
sS'thing'
p1148
I472
sS'think'
p1149
I815
sS'waited'
p1150
I58
sS'first'
p1151
I326
sS'question'
p1152
I33
sS'long'
p1153
I797
sS'carry'
p1154
I96
sS'sounds'
p1155
I43
sS'little'
p1156
I886
sS'slept'
p1157
I24
sS'anyone'
p1158
I92
sS'eyes'
p1159
I922
sS'seat'
p1160
I56
sS'cracks'
p1161
I20
sS'gotta'
p1162
I338
sS'voices'
p1163
I37
sS'green'
p1164
I104
sS'pain'
p1165
I359
sS'track'
p1166
I37
sS'paid'
p1167
I35
sS'skinner'
p1168
I21
sS'sheets'
p1169
I24
sS'order'
p1170
I22
sS'shot'
p1171
I75
sS'show'
p1172
I353
sS'corner'
p1173
I51
sS'takin'
p1174
I51
sS'dick'
p1175
I27
sS'air'
p1176
I169
sS'black'
p1177
I118
sS'over'
p1178
I664
sS'get'
p1179
I1360
sS'stomp'
p1180
I22
sS'satisfied'
p1181
I48
sS'morning'
p1182
I266
sS'stupid'
p1183
I59
sS'wonder'
p1184
I133
sS'diamonds'
p1185
I46
sS'whispered'
p1186
I25
sS'killing'
p1187
I51
sS'among'
p1188
I26
sS'wake'
p1189
I153
sS'those'
p1190
I303
sS'sound'
p1191
I248
sS'then'
p1192
I806
sS'sincere'
p1193
I33
sS'sleeping'
p1194
I65
sS'middle'
p1195
I120
sS'everyday'
p1196
I65
sS'bags'
p1197
I28
sS'different'
p1198
I89
sS'pay'
p1199
I120
sS'same'
p1200
I389
sS'bottle'
p1201
I72
sS'money'
p1202
I178
sS'pill'
p1203
I25
sS'grip'
p1204
I22
sS'lightning'
p1205
I22
sS'view'
p1206
I29
sS'doll'
p1207
I20
sS'everybodys'
p1208
I64
sS'erase'
p1209
I43
sS'broken'
p1210
I198
sS'road'
p1211
I217
sS'blessed'
p1212
I42
sS'enough'
p1213
I339
sS'deep'
p1214
I256
sS'girlfriend'
p1215
I20
sS'film'
p1216
I28
sS'fill'
p1217
I87
sS'again'
p1218
I754
sS'shelter'
p1219
I23
sS'flyin'
p1220
I24
sS'u'
p1221
I24
sS'god'
p1222
I224
sS'alright'
p1223
I200
sS'starting'
p1224
I27
sS'forget'
p1225
I239
sS'balloon'
p1226
I26
sS'sung'
p1227
I23
sS'imma'
p1228
I27
sS'squeeze'
p1229
I22
sS'swallow'
p1230
I27
sS'mornin'
p1231
I75
sS'sitting'
p1232
I78
sS'fall'
p1233
I388
sS'strung'
p1234
I20
sS'stood'
p1235
I53
sS'itll'
p1236
I46
sS'eye'
p1237
I143
sS'nothings'
p1238
I50
sS'two'
p1239
I357
sS'diamond'
p1240
I35
sS'town'
p1241
I323
sS'hour'
p1242
I43
sS'remain'
p1243
I65
sS'compare'
p1244
I33
sS'share'
p1245
I101
sS'needs'
p1246
I62
sS'fame'
p1247
I26
sS'blood'
p1248
I89
sS'crowded'
p1249
I39
sS'pleasure'
p1250
I36
sS'playing'
p1251
I82
sS'late'
p1252
I167
sS'hurting'
p1253
I25
sS'good'
p1254
I755
sS'walls'
p1255
I98
sS'someone'
p1256
I351
sS'everyone'
p1257
I139
sS'house'
p1258
I161
sS'fish'
p1259
I24
sS'hard'
p1260
I480
sS'flower'
p1261
I20
sS'acting'
p1262
I39
sS'beginning'
p1263
I46
sS'needing'
p1264
I21
sS'running'
p1265
I186
sS'done'
p1266
I299
sS'twenty'
p1267
I32
sS'least'
p1268
I30
sS'paint'
p1269
I34
sS'mama'
p1270
I114
sS'park'
p1271
I66
sS'believe'
p1272
I435
sS'youth'
p1273
I20
sS'supposed'
p1274
I48
sS'treated'
p1275
I43
sS'outta'
p1276
I67
sS'fading'
p1277
I22
sS'built'
p1278
I40
sS'dancing'
p1279
I72
sS'couch'
p1280
I22
sS'build'
p1281
I72
sS'waitin'
p1282
I81
sS'took'
p1283
I269
sS'most'
p1284
I91
sS'fine'
p1285
I189
sS'find'
p1286
I747
sS'weve'
p1287
I207
sS'tender'
p1288
I73
sS'please'
p1289
I304
sS'case'
p1290
I25
sS'burned'
p1291
I56
sS'foreign'
p1292
I22
sS'danced'
p1293
I21
sS'point'
p1294
I85
sS'simple'
p1295
I78
sS'simply'
p1296
I30
sS'patiently'
p1297
I25
sS'raise'
p1298
I38
sS'secret'
p1299
I41
sS'gay'
p1300
I20
sS'gas'
p1301
I33
sS'understand'
p1302
I273
sS'talking'
p1303
I108
sS'fun'
p1304
I144
sS'keys'
p1305
I24
sS'yesterday'
p1306
I116
sS'moment'
p1307
I183
sS'spent'
p1308
I73
sS'apple'
p1309
I30
sS'letting'
p1310
I60
sS'cut'
p1311
I96
sS'cup'
p1312
I53
sS'cuz'
p1313
I82
sS'big'
p1314
I244
sS'tracks'
p1315
I23
sS'bit'
p1316
I125
sS'knock'
p1317
I27
sS'foolish'
p1318
I27
sS'circles'
p1319
I34
sS'often'
p1320
I45
sS'back'
p1321
I1139
sS'mirror'
p1322
I70
sS'candle'
p1323
I26
sS'ourselves'
p1324
I44
sS'nose'
p1325
I32
sS'from'
p1326
I1461
sS'boys'
p1327
I126
sS'groove'
p1328
I23
sS'listening'
p1329
I54
sS'single'
p1330
I87
sS'theyll'
p1331
I48
sS'desert'
p1332
I41
sS'rhyme'
p1333
I51
sS'havent'
p1334
I50
sS'bleeding'
p1335
I30
sS'rivers'
p1336
I37
sS'giving'
p1337
I90
sS'body'
p1338
I127
sS'others'
p1339
I35
sS'sing'
p1340
I212
sS'climb'
p1341
I44
sS'named'
p1342
I23
sS'train'
p1343
I108
sS'closing'
p1344
I51
sS'didnt'
p1345
I401
sS'ohoh'
p1346
I26
sS'bones'
p1347
I43
sS'holds'
p1348
I29
sS'summers'
p1349
I28
sS'chasing'
p1350
I22
sS'sit'
p1351
I138
sS'lines'
p1352
I57
sS'bunch'
p1353
I21
sS'age'
p1354
I38
sS'dad'
p1355
I23
sS'spell'
p1356
I34
sS'day'
p1357
I1045
sS'thrill'
p1358
I76
sS'slipping'
p1359
I23
sS'dreaming'
p1360
I141
sS'red'
p1361
I195
sS'bleed'
p1362
I37
sS'rita'
p1363
I29
sS'south'
p1364
I36
sS'finest'
p1365
I23
sS'hey'
p1366
I362
sS'somethin'
p1367
I69
sS'nobody'
p1368
I212
sS'loved'
p1369
I187
sS'babys'
p1370
I36
sS'loves'
p1371
I130
sS'lover'
p1372
I83
sS'tide'
p1373
I30
sS'mic'
p1374
I22
sS'grabbed'
p1375
I25
sS'blowin'
p1376
I35
sS'beat'
p1377
I121
sS'rush'
p1378
I51
sS'bear'
p1379
I39
sS'calling'
p1380
I102
sS'sorrow'
p1381
I84
sS'boss'
p1382
I38
sS'taking'
p1383
I108
sS'passing'
p1384
I35
sS'laugh'
p1385
I107
sS'ah'
p1386
I110
sS'cos'
p1387
I22
sS'tenderly'
p1388
I39
sS'bye'
p1389
I27
sS'plain'
p1390
I23
sS'almost'
p1391
I107
sS'fucked'
p1392
I37
sS'thought'
p1393
I389
sS'position'
p1394
I61
sS'tough'
p1395
I34
sS'field'
p1396
I30
sS'ohhh'
p1397
I24
sS'ought'
p1398
I33
sS'like'
p1399
I2531
sS'soft'
p1400
I58
sS'chico'
p1401
I30
sS'alive'
p1402
I175
sS'hair'
p1403
I220
sS'wider'
p1404
I24
sS'happens'
p1405
I31
sS'chains'
p1406
I22
sS'noise'
p1407
I26
sS'about'
p1408
I761
sS'doesnt'
p1409
I195
sS'biggest'
p1410
I23
sS'buy'
p1411
I43
sS'bus'
p1412
I33
sS'coke'
p1413
I20
sS'but'
p1414
I2996
sS'wise'
p1415
I39
sS'glory'
p1416
I32
sS'whisper'
p1417
I43
sS'pie'
p1418
I20
sS'dressed'
p1419
I57
sS'special'
p1420
I67
sS'shouldve'
p1421
I42
sS'goin'
p1422
I130
sS'mancini'
p1423
I29
sS'sleep'
p1424
I254
sS'hate'
p1425
I155
sS'paris'
p1426
I20
sS'created'
p1427
I20
sS'under'
p1428
I183
sS'risk'
p1429
I24
sS'rise'
p1430
I77
sS'every'
p1431
I754
sS'jack'
p1432
I60
sS'monkeys'
p1433
I22
sS'married'
p1434
I21
sS'school'
p1435
I102
sS'cause'
p1436
I1271
sS'loneliness'
p1437
I43
sS'parted'
p1438
I30
sS'emptiness'
p1439
I37
sS'shining'
p1440
I98
sS'blue'
p1441
I238
sS'hide'
p1442
I206
sS'christ'
p1443
I28
sS'poison'
p1444
I26
sS'children'
p1445
I99
sS'path'
p1446
I36
sS'leaves'
p1447
I143
sS'would'
p1448
I671
sS'phone'
p1449
I106
sS'must'
p1450
I285
sS'shoot'
p1451
I34
sS'ma'
p1452
I21
sS'mc'
p1453
I29
sS'mr'
p1454
I36
sS'times'
p1455
I255
sS'end'
p1456
I399
sS'flow'
p1457
I49
sS'mess'
p1458
I69
sS'insecure'
p1459
I22
sS'ima'
p1460
I42
sS'beside'
p1461
I63
sS'fade'
p1462
I45
sS'shadows'
p1463
I82
sS'holdin'
p1464
I42
sS'each'
p1465
I251
sS'ghosts'
p1466
I33
sS'saturday'
p1467
I42
sS'gon'
p1468
I43
sS'driving'
p1469
I42
sS'laid'
p1470
I62
sS'got'
p1471
I1490
sS'hang'
p1472
I83
sS'free'
p1473
I263
sS'rain'
p1474
I265
sS'wanted'
p1475
I221
sS'days'
p1476
I300
sS'onto'
p1477
I21
sS'already'
p1478
I92
sS'hearing'
p1479
I40
sS'fantasy'
p1480
I34
sS'sober'
p1481
I22
sS'toy'
p1482
I22
sS'top'
p1483
I110
sS'too'
p1484
I802
sS'tom'
p1485
I20
sS'rockin'
p1486
I23
sS'final'
p1487
I49
sS'flame'
p1488
I43
sS'bridge'
p1489
I36
sS'close'
p1490
I293
sS'ran'
p1491
I69
sS'rap'
p1492
I29
sS'ray'
p1493
I25
sS'snow'
p1494
I171
sS'laughed'
p1495
I26
sS'freeway'
p1496
I26
sS'queen'
p1497
I46
sS'colors'
p1498
I32
sS'radio'
p1499
I89
sS'earth'
p1500
I94
sS'watch'
p1501
I269
sS'goodbyes'
p1502
I25
sS'twice'
p1503
I60
sS'mud'
p1504
I32
sS'finger'
p1505
I63
sS'drivin'
p1506
I23
sS'weak'
p1507
I63
sS'wear'
p1508
I70
sS'news'
p1509
I56
sS'mule'
p1510
I21
sS'fault'
p1511
I33
sS'games'
p1512
I50
sS'bet'
p1513
I81
sS'faces'
p1514
I36
sS'trust'
p1515
I124
sS'been'
p1516
I1060
sS'beer'
p1517
I58
sS'search'
p1518
I26
sS'catch'
p1519
I151
sS'n'
p1520
I26
sS'wound'
p1521
I23
sS'several'
p1522
I22
sS'misery'
p1523
I42
sS'ocean'
p1524
I56
sS'greatest'
p1525
I30
sS'mother'
p1526
I104
sS'hearts'
p1527
I124
sS'jean'
p1528
I20
sS'city'
p1529
I182
sS'gave'
p1530
I198
sS'breaks'
p1531
I62
sS'judge'
p1532
I20
sS'burns'
p1533
I23
sS'apart'
p1534
I192
sS'gift'
p1535
I34
sS'hung'
p1536
I38
sS'escape'
p1537
I86
sS'ice'
p1538
I56
sS'everything'
p1539
I491
sS'christmas'
p1540
I219
sS'corn'
p1541
I30
sS'explain'
p1542
I34
sS'sunlight'
p1543
I40
sS'dreamin'
p1544
I67
sS'stuck'
p1545
I91
sS'fought'
p1546
I22
sS'head'
p1547
I415
sS'heal'
p1548
I76
sS'deny'
p1549
I82
sS'heat'
p1550
I30
sS'hear'
p1551
I614
sS'shines'
p1552
I38
sS'trip'
p1553
I44
sS'no'
p1554
I1861
sS'na'
p1555
I31
sS'til'
p1556
I156
sS'tie'
p1557
I31
sS'picture'
p1558
I78
sS'football'
p1559
I25
sS'longer'
p1560
I49
sS'bullet'
p1561
I34
sS'focus'
p1562
I20
sS'cool'
p1563
I108
sS'clouds'
p1564
I113
sS'recall'
p1565
I71
sS'quick'
p1566
I26
sS'yall'
p1567
I95
sS'uh'
p1568
I155
sS'fear'
p1569
I118
sS'drinks'
p1570
I29
sS'stands'
p1571
I29
sS'goes'
p1572
I221
sS'water'
p1573
I89
sS'confused'
p1574
I43
sS'guilty'
p1575
I25
sS'proud'
p1576
I46
sS'yourself'
p1577
I185
sS'andy'
p1578
I49
sS'memory'
p1579
I110
sS'today'
p1580
I195
sS'laughter'
p1581
I32
sS'watchin'
p1582
I40
sS'figure'
p1583
I41
sS'dropped'
p1584
I21
sS'leavin'
p1585
I37
sS'rollin'
p1586
I31
sS'smellin'
p1587
I32
sS'comfort'
p1588
I69
sS'words'
p1589
I458
sS'midnight'
p1590
I45
sS'aha'
p1591
I43
sS'happened'
p1592
I61
sS'underneath'
p1593
I84
sS'name'
p1594
I343
sS'begun'
p1595
I51
sS'sunrise'
p1596
I21
sS'motion'
p1597
I26
sS'turn'
p1598
I394
sS'place'
p1599
I481
sS'swing'
p1600
I53
sS'coming'
p1601
I226
sS'given'
p1602
I101
sS'white'
p1603
I139
sS'gives'
p1604
I34
sS'hug'
p1605
I23
sS'season'
p1606
I41
sS'huh'
p1607
I86
sS'youve'
p1608
I503
sS'miles'
p1609
I69
sS'rent'
p1610
I25
sS'any'
p1611
I198
sS'wandered'
p1612
I24
sS'sure'
p1613
I218
sS'falls'
p1614
I70
sS'later'
p1615
I59
sS'hungry'
p1616
I30
sS'resist'
p1617
I20
sS'cheap'
p1618
I22
sS'state'
p1619
I48
sS'crime'
p1620
I20
sS'believing'
p1621
I27
sS'begging'
p1622
I43
sS'ways'
p1623
I68
sS'outside'
p1624
I97
sS'adore'
p1625
I39
sS'grieves'
p1626
I28
sS'guitar'
p1627
I77
sS'come'
p1628
I1214
sS'quiet'
p1629
I58
sS'pop'
p1630
I32
sS'lifes'
p1631
I26
sS'hardly'
p1632
I52
sS'direction'
p1633
I25
sS'careful'
p1634
I34
sS'myself'
p1635
I451
sS'cast'
p1636
I51
sS'telephone'
p1637
I34
sS'granted'
p1638
I23
sS'check'
p1639
I81
sS'tried'
p1640
I221
sS'week'
p1641
I60
sS'changing'
p1642
I41
sS'weep'
p1643
I26
sS'dying'
p1644
I44
sS'without'
p1645
I413
sS'kill'
p1646
I75
sS'blow'
p1647
I85
sS'rose'
p1648
I28
sS'seems'
p1649
I240
sS'lets'
p1650
I283
sS'makin'
p1651
I56
sS'color'
p1652
I25
sS'tarot'
p1653
I29
sS'moon'
p1654
I197
sS'quit'
p1655
I41
sS'ol'
p1656
I25
sS'ok'
p1657
I29
sS'oh'
p1658
I1463
sS'stand'
p1659
I235
sS'or'
p1660
I757
sS'ladies'
p1661
I27
sS'there'
p1662
I1262
sS'faster'
p1663
I43
sS'grass'
p1664
I73
sS'taste'
p1665
I113
sS'blues'
p1666
I47
sS'greetings'
p1667
I20
sS'deserve'
p1668
I24
sS'roses'
p1669
I59
sS'separate'
p1670
I20
sS'missed'
p1671
I52
sS'calls'
p1672
I45
sS'wife'
p1673
I47
sS'crash'
p1674
I22
sS'all'
p1675
I3265
sS'lace'
p1676
I27
sS'follow'
p1677
I102
sS'woman'
p1678
I121
sS'song'
p1679
I351
sS'far'
p1680
I354
sS'fat'
p1681
I33
sS'awful'
p1682
I24
sS'list'
p1683
I30
sS'ten'
p1684
I94
sS'shinin'
p1685
I28
sS'what'
p1686
I1863
sS'sun'
p1687
I413
sS'version'
p1688
I21
sS'toes'
p1689
I35
sS'mmm'
p1690
I49
sS'suddenly'
p1691
I64
sS'ringing'
p1692
I37
sS'horses'
p1693
I21
sS'tryna'
p1694
I30
sS'knows'
p1695
I269
sS'known'
p1696
I148
sS'glad'
p1697
I47
sS'desperation'
p1698
I28
sS'rather'
p1699
I71
sS'okay'
p1700
I88
sS'numb'
p1701
I37
sS'short'
p1702
I51
sS'shore'
p1703
I33
sS'shade'
p1704
I33
sS'isnt'
p1705
I90
sS'avenue'
p1706
I26
sS'style'
p1707
I103
sS'bout'
p1708
I176
sS'might'
p1709
I252
sS'somebody'
p1710
I225
sS'bigger'
p1711
I30
sS'weight'
p1712
I48
sS'brother'
p1713
I76
sS'hill'
p1714
I41
sS'paradise'
p1715
I28
sS'friday'
p1716
I57
sS'guess'
p1717
I303
sS'teach'
p1718
I20
sS'fallen'
p1719
I26
sS'feel'
p1720
I1073
sS'fancy'
p1721
I26
sS'traveled'
p1722
I25
sS'feet'
p1723
I207
sS'says'
p1724
I149
sS'regret'
p1725
I48
sS'story'
p1726
I122
sS'storm'
p1727
I35
sS'store'
p1728
I28
sS'hotel'
p1729
I37
sS'convinced'
p1730
I25
sS'king'
p1731
I103
sS'kind'
p1732
I256
sS'double'
p1733
I42
sS'nights'
p1734
I179
sS'reach'
p1735
I136
sS'react'
p1736
I21
sS'cigarette'
p1737
I21
sS'nothing'
p1738
I507
sS'breaker'
p1739
I24
sS'windows'
p1740
I27
sS'part'
p1741
I216
sS'lying'
p1742
I67
sS'melody'
p1743
I37
sS'grace'
p1744
I42
sS'hit'
p1745
I203
sS'dumb'
p1746
I28
sS'arm'
p1747
I26
sS'solo'
p1748
I20
sS'c'
p1749
I20
sS'breakin'
p1750
I36
sS'reasons'
p1751
I22
sS'sweet'
p1752
I326
sS'key'
p1753
I35
sS'village'
p1754
I25
sS'due'
p1755
I34
sS'whos'
p1756
I90
sS'whoa'
p1757
I58
sS'woke'
p1758
I85
sS'flight'
p1759
I29
sS'rocking'
p1760
I42
sS'kick'
p1761
I71
sS'theres'
p1762
I882
sS'shirt'
p1763
I29
sS'higher'
p1764
I32
sS'mountain'
p1765
I47
sS'arrived'
p1766
I44
sS'wheres'
p1767
I21
sS'frozen'
p1768
I22
sS'anybody'
p1769
I50
sS'cheer'
p1770
I23
sS'edge'
p1771
I69
sS'questions'
p1772
I32
sS'prince'
p1773
I21
sS'lovin'
p1774
I100
sS'ignore'
p1775
I23
sS'fucking'
p1776
I31
sS'real'
p1777
I301
sS'mommy'
p1778
I21
sS'momma'
p1779
I59
sS'fast'
p1780
I232
sS'mountains'
p1781
I48
sS'called'
p1782
I130
sS'stick'
p1783
I56
sS'warning'
p1784
I25
sS'rainy'
p1785
I25
sS'peace'
p1786
I76
sS'nice'
p1787
I96
sS'meaning'
p1788
I27
sS'spring'
p1789
I37
sS'breathing'
p1790
I40
sS'wished'
p1791
I21
sS'wishes'
p1792
I29
sS'drinking'
p1793
I37
sS'notes'
p1794
I20
sS'someday'
p1795
I77
sS'waiting'
p1796
I257
sS'pushing'
p1797
I33
sS'shades'
p1798
I20
sS'leaving'
p1799
I121
sS'expect'
p1800
I21
sS'fed'
p1801
I34
sS'women'
p1802
I33
sS'getting'
p1803
I198
sS'anywhere'
p1804
I70
sS'something'
p1805
I500
sS'six'
p1806
I60
sS'swear'
p1807
I70
sS'instead'
p1808
I61
sS'sin'
p1809
I45
sS'sweat'
p1810
I26
sS'light'
p1811
I437
sS'honestly'
p1812
I37
sS'crawling'
p1813
I27
sS'looks'
p1814
I157
sS'write'
p1815
I53
sS'carols'
p1816
I20
sS'covered'
p1817
I37
sS'holiday'
p1818
I37
sS'flew'
p1819
I20
sS'worlds'
p1820
I39
sS'eased'
p1821
I20
sS'out'
p1822
I1699
sS'sacrifice'
p1823
I23
sS'york'
p1824
I35
sS'conversation'
p1825
I42
sS'choose'
p1826
I48
sS'shell'
p1827
I82
sS'remember'
p1828
I393
sS'afraid'
p1829
I159
sS'who'
p1830
I654
sS'class'
p1831
I20
sS'looked'
p1832
I106
sS'nobodys'
p1833
I24
sS'brenda'
p1834
I25
sS'chances'
p1835
I27
sS'workin'
p1836
I31
sS'watching'
p1837
I117
sS'ones'
p1838
I137
sS'closer'
p1839
I82
sS'cried'
p1840
I58
sS'closed'
p1841
I39
sS'joy'
p1842
I73
sS'job'
p1843
I66
sS'wall'
p1844
I75
sS'walk'
p1845
I415
sS'table'
p1846
I36
sS'painted'
p1847
I33
sS'hmm'
p1848
I20
sS'last'
p1849
I467
sS'will'
p1850
I1076
sS'wild'
p1851
I106
sS'lonely'
p1852
I296
sS'kissed'
p1853
I78
sS'cross'
p1854
I71
sS'gets'
p1855
I153
sS'fighting'
p1856
I46
sS'cries'
p1857
I25
sS'happiness'
p1858
I29
sS'drunk'
p1859
I65
sS'sky'
p1860
I379
sS'smart'
p1861
I32
sS'know'
p1862
I2538
sS'tennessee'
p1863
I24
sS'nigga'
p1864
I97
sS'scared'
p1865
I74
sS'searching'
p1866
I49
sS'lead'
p1867
I87
sS'lean'
p1868
I32
sS'carried'
p1869
I31
sS'linger'
p1870
I31
sS'places'
p1871
I108
sS'own'
p1872
I343
sS'owe'
p1873
I20
sS'weather'
p1874
I59
sS'promise'
p1875
I82
sS'van'
p1876
I20
sS'bitches'
p1877
I24
sS'made'
p1878
I497
sS'record'
p1879
I29
sS'below'
p1880
I64
sS'cmon'
p1881
I37
sS'other'
p1882
I404
sS'sick'
p1883
I116
sS'kinda'
p1884
I94
sS'awake'
p1885
I71
s.